; Function Attrs: mustprogress nounwind uwtable
define hidden void @_ZN15ResourceTrackerD2Ev(ptr nocapture noundef nonnull readonly align 8 dereferenceable(17) %0) unnamed_addr #0 align 2 {
  %2 = getelementptr inbounds i8, ptr %0, i64 16
  %3 = load i8, ptr %2, align 8
  %4 = trunc i8 %3 to i1
  %5 = getelementptr inbounds i8, ptr %0, i64 8
  %6 = load ptr, ptr %5, align 8
  br i1 %4, label %.preheader, label %.loopexit

.preheader:                                       ; preds = %1
  %7 = load i32, ptr %6, align 4
  %8 = icmp sgt i32 %7, 0
  br i1 %8, label %.lr.ph, label %.loopexit.thread

.lr.ph:                                           ; preds = %.preheader, %_ZN12JvmtiEnvBase10deallocateEPh.exit
  %9 = phi i32 [ %16, %_ZN12JvmtiEnvBase10deallocateEPh.exit ], [ %7, %.preheader ]
  %10 = phi ptr [ %17, %_ZN12JvmtiEnvBase10deallocateEPh.exit ], [ %6, %.preheader ]
  %indvars.iv = phi i64 [ %indvars.iv.next, %_ZN12JvmtiEnvBase10deallocateEPh.exit ], [ 0, %.preheader ]
  %11 = getelementptr inbounds i8, ptr %10, i64 8
  %12 = load ptr, ptr %11, align 8
  %13 = getelementptr inbounds ptr, ptr %12, i64 %indvars.iv
  %14 = load ptr, ptr %13, align 8
  %.not.i = icmp eq ptr %14, null
  br i1 %.not.i, label %_ZN12JvmtiEnvBase10deallocateEPh.exit, label %15

15:                                               ; preds = %.lr.ph
  tail call void @_ZN2os4freeEPv(ptr noundef nonnull %14) #18
  %.pre = load ptr, ptr %5, align 8
  %.pre7 = load i32, ptr %.pre, align 4
  br label %_ZN12JvmtiEnvBase10deallocateEPh.exit

_ZN12JvmtiEnvBase10deallocateEPh.exit:            ; preds = %.lr.ph, %15
  %16 = phi i32 [ %9, %.lr.ph ], [ %.pre7, %15 ]
  %17 = phi ptr [ %10, %.lr.ph ], [ %.pre, %15 ]
  %indvars.iv.next = add nuw nsw i64 %indvars.iv, 1
  %18 = sext i32 %16 to i64
  %19 = icmp slt i64 %indvars.iv.next, %18
  br i1 %19, label %.lr.ph, label %.loopexit.thread, !llvm.loop !62

.loopexit:                                        ; preds = %1
  %20 = icmp eq ptr %6, null
  br i1 %20, label %26, label %.loopexit.thread

.loopexit.thread:                                 ; preds = %_ZN12JvmtiEnvBase10deallocateEPh.exit, %.preheader, %.loopexit
  %21 = phi ptr [ %6, %.loopexit ], [ %6, %.preheader ], [ %17, %_ZN12JvmtiEnvBase10deallocateEPh.exit ]
  %22 = getelementptr inbounds i8, ptr %21, i64 16
  %23 = load i64, ptr %22, align 8
  %24 = and i64 %23, 1
  %.not.i4 = icmp eq i64 %24, 0
  br i1 %.not.i4, label %_ZN13GrowableArrayIPhED2Ev.exit, label %25

25:                                               ; preds = %.loopexit.thread
  store i32 0, ptr %21, align 4
  tail call void @_ZN26GrowableArrayWithAllocatorIPh13GrowableArrayIS0_EE13shrink_to_fitEv(ptr noundef nonnull align 8 dereferenceable(16) %21)
  br label %_ZN13GrowableArrayIPhED2Ev.exit

_ZN13GrowableArrayIPhED2Ev.exit:                  ; preds = %.loopexit.thread, %25
  tail call void @_ZN6AnyObjdlEPv(ptr noundef nonnull %21) #18
  br label %26

26:                                               ; preds = %_ZN13GrowableArrayIPhED2Ev.exit, %.loopexit
  ret void
}